target datalayout = "e-m:e-p270:32:32-p271:32:32-p272:64:64-i64:64-i128:128-f80:128-n8:16:32:64-S128"
target triple = "x86_64-unknown-linux-gnu"

%"class.base::Value" = type <{ ptr, i32, [4 x i8] }>

; Function Attrs: mustprogress nounwind uwtable
define linkonce_odr dso_local noundef i32 @_ZNK4base5Value7GetTypeEv(ptr noundef nonnull align 8 dereferenceable(12) %this) #0 comdat align 2 {
entry:
  %this.addr = alloca ptr, align 8
  store ptr %this, ptr %this.addr, align 8
  %this1 = load ptr, ptr %this.addr, align 8
  %type_ = getelementptr inbounds %"class.base::Value", ptr %this1, i32 0, i32 1
  %0 = load i32, ptr %type_, align 8
  ret i32 %0
}

; Function Attrs: mustprogress uwtable
define dso_local noundef zeroext i1 @_ZNK4base16FundamentalValue6EqualsEPKNS_5ValueE(ptr noundef nonnull align 8 dereferenceable(24) %this, ptr noundef %other) unnamed_addr #2 align 2 {
entry:
  %retval = alloca i1, align 1
  %this.addr = alloca ptr, align 8
  %other.addr = alloca ptr, align 8
  %lhs = alloca i8, align 1
  %rhs = alloca i8, align 1
  %lhs12 = alloca i32, align 4
  %rhs13 = alloca i32, align 4
  %lhs25 = alloca double, align 8
  %rhs26 = alloca double, align 8
  store ptr %this, ptr %this.addr, align 8
  store ptr %other, ptr %other.addr, align 8
  %this1 = load ptr, ptr %this.addr, align 8
  %0 = load ptr, ptr %other.addr, align 8
  %call = call noundef i32 @_ZNK4base5Value7GetTypeEv(ptr noundef nonnull align 8 dereferenceable(12) %0)
  %call2 = call noundef i32 @_ZNK4base5Value7GetTypeEv(ptr noundef nonnull align 8 dereferenceable(12) %this1)
  %cmp = icmp ne i32 %call, %call2
  br i1 %cmp, label %if.then, label %if.end

if.then:                                          ; preds = %entry
  store i1 false, ptr %retval, align 1
  br label %return

if.end:                                           ; preds = %entry
  %call3 = call noundef i32 @_ZNK4base5Value7GetTypeEv(ptr noundef nonnull align 8 dereferenceable(12) %this1)
  switch i32 %call3, label %sw.default [
    i32 1, label %sw.bb
    i32 2, label %sw.bb11
    i32 3, label %sw.bb24
  ]

sw.bb:                                            ; preds = %if.end
  %vtable = load ptr, ptr %this1, align 8
  %vfn = getelementptr inbounds ptr, ptr %vtable, i64 2
  %1 = load ptr, ptr %vfn, align 8
  %call4 = call noundef zeroext i1 %1(ptr noundef nonnull align 8 dereferenceable(24) %this1, ptr noundef %lhs)
  br i1 %call4, label %land.lhs.true, label %land.end

land.lhs.true:                                    ; preds = %sw.bb
  %2 = load ptr, ptr %other.addr, align 8
  %vtable5 = load ptr, ptr %2, align 8
  %vfn6 = getelementptr inbounds ptr, ptr %vtable5, i64 2
  %3 = load ptr, ptr %vfn6, align 8
  %call7 = call noundef zeroext i1 %3(ptr noundef nonnull align 8 dereferenceable(12) %2, ptr noundef %rhs)
  br i1 %call7, label %land.rhs, label %land.end

land.rhs:                                         ; preds = %land.lhs.true
  %4 = load i8, ptr %lhs, align 1
  %tobool = trunc i8 %4 to i1
  %conv = zext i1 %tobool to i32
  %5 = load i8, ptr %rhs, align 1
  %tobool8 = trunc i8 %5 to i1
  %conv9 = zext i1 %tobool8 to i32
  %cmp10 = icmp eq i32 %conv, %conv9
  br label %land.end

land.end:                                         ; preds = %land.rhs, %land.lhs.true, %sw.bb
  %6 = phi i1 [ false, %land.lhs.true ], [ false, %sw.bb ], [ %cmp10, %land.rhs ]
  store i1 %6, ptr %retval, align 1
  br label %return

sw.bb11:                                          ; preds = %if.end
  %vtable14 = load ptr, ptr %this1, align 8
  %vfn15 = getelementptr inbounds ptr, ptr %vtable14, i64 3
  %7 = load ptr, ptr %vfn15, align 8
  %call16 = call noundef zeroext i1 %7(ptr noundef nonnull align 8 dereferenceable(24) %this1, ptr noundef %lhs12)
  br i1 %call16, label %land.lhs.true17, label %land.end23

land.lhs.true17:                                  ; preds = %sw.bb11
  %8 = load ptr, ptr %other.addr, align 8
  %vtable18 = load ptr, ptr %8, align 8
  %vfn19 = getelementptr inbounds ptr, ptr %vtable18, i64 3
  %9 = load ptr, ptr %vfn19, align 8
  %call20 = call noundef zeroext i1 %9(ptr noundef nonnull align 8 dereferenceable(12) %8, ptr noundef %rhs13)
  br i1 %call20, label %land.rhs21, label %land.end23

land.rhs21:                                       ; preds = %land.lhs.true17
  %10 = load i32, ptr %lhs12, align 4
  %11 = load i32, ptr %rhs13, align 4
  %cmp22 = icmp eq i32 %10, %11
  br label %land.end23

land.end23:                                       ; preds = %land.rhs21, %land.lhs.true17, %sw.bb11
  %12 = phi i1 [ false, %land.lhs.true17 ], [ false, %sw.bb11 ], [ %cmp22, %land.rhs21 ]
  store i1 %12, ptr %retval, align 1
  br label %return

sw.bb24:                                          ; preds = %if.end
  %vtable27 = load ptr, ptr %this1, align 8
  %vfn28 = getelementptr inbounds ptr, ptr %vtable27, i64 4
  %13 = load ptr, ptr %vfn28, align 8
  %call29 = call noundef zeroext i1 %13(ptr noundef nonnull align 8 dereferenceable(24) %this1, ptr noundef %lhs25)
  br i1 %call29, label %land.lhs.true30, label %land.end36

land.lhs.true30:                                  ; preds = %sw.bb24
  %14 = load ptr, ptr %other.addr, align 8
  %vtable31 = load ptr, ptr %14, align 8
  %vfn32 = getelementptr inbounds ptr, ptr %vtable31, i64 4
  %15 = load ptr, ptr %vfn32, align 8
  %call33 = call noundef zeroext i1 %15(ptr noundef nonnull align 8 dereferenceable(12) %14, ptr noundef %rhs26)
  br i1 %call33, label %land.rhs34, label %land.end36

land.rhs34:                                       ; preds = %land.lhs.true30
  %16 = load double, ptr %lhs25, align 8
  %17 = load double, ptr %rhs26, align 8
  %cmp35 = fcmp oeq double %16, %17
  br label %land.end36

land.end36:                                       ; preds = %land.rhs34, %land.lhs.true30, %sw.bb24
  %18 = phi i1 [ false, %land.lhs.true30 ], [ false, %sw.bb24 ], [ %cmp35, %land.rhs34 ]
  store i1 %18, ptr %retval, align 1
  br label %return

sw.default:                                       ; preds = %if.end
  store i1 false, ptr %retval, align 1
  br label %return

return:                                           ; preds = %sw.default, %land.end36, %land.end23, %land.end, %if.then
  %19 = load i1, ptr %retval, align 1
  ret i1 %19
}