; Function Attrs: mustprogress uwtable
define dso_local noundef zeroext i1 @_ZNK4base16FundamentalValue6EqualsEPKNS_5ValueE(ptr noundef nonnull align 8 dereferenceable(24) %this, ptr noundef %other) unnamed_addr #3 align 2 {
entry:
  %lhs = alloca i8, align 1
  %rhs = alloca i8, align 1
  %lhs12 = alloca i32, align 4
  %rhs13 = alloca i32, align 4
  %lhs25 = alloca double, align 8
  %rhs26 = alloca double, align 8
  %type_.i = getelementptr inbounds i8, ptr %other, i64 8
  %0 = load i32, ptr %type_.i, align 8
  %type_.i4 = getelementptr inbounds i8, ptr %this, i64 8
  %1 = load i32, ptr %type_.i4, align 8
  %cmp.not = icmp eq i32 %0, %1
  br i1 %cmp.not, label %if.end, label %return

if.end:                                           ; preds = %entry
  switch i32 %0, label %return [
    i32 1, label %sw.bb
    i32 2, label %sw.bb11
    i32 3, label %sw.bb24
  ]

sw.bb:                                            ; preds = %if.end
  %vtable = load ptr, ptr %this, align 8
  %vfn = getelementptr inbounds i8, ptr %vtable, i64 16
  %2 = load ptr, ptr %vfn, align 8
  %call4 = call noundef zeroext i1 %2(ptr noundef nonnull align 8 dereferenceable(24) %this, ptr noundef nonnull %lhs)
  br i1 %call4, label %land.lhs.true, label %return

land.lhs.true:                                    ; preds = %sw.bb
  %vtable5 = load ptr, ptr %other, align 8
  %vfn6 = getelementptr inbounds i8, ptr %vtable5, i64 16
  %3 = load ptr, ptr %vfn6, align 8
  %call7 = call noundef zeroext i1 %3(ptr noundef nonnull align 8 dereferenceable(12) %other, ptr noundef nonnull %rhs)
  br i1 %call7, label %land.rhs, label %return

land.rhs:                                         ; preds = %land.lhs.true
  %4 = load i8, ptr %lhs, align 1
  %5 = load i8, ptr %rhs, align 1
  %6 = xor i8 %5, %4
  %7 = and i8 %6, 1
  %cmp10 = icmp eq i8 %7, 0
  br label %return

sw.bb11:                                          ; preds = %if.end
  %vtable14 = load ptr, ptr %this, align 8
  %vfn15 = getelementptr inbounds i8, ptr %vtable14, i64 24
  %8 = load ptr, ptr %vfn15, align 8
  %call16 = call noundef zeroext i1 %8(ptr noundef nonnull align 8 dereferenceable(24) %this, ptr noundef nonnull %lhs12)
  br i1 %call16, label %land.lhs.true17, label %return

land.lhs.true17:                                  ; preds = %sw.bb11
  %vtable18 = load ptr, ptr %other, align 8
  %vfn19 = getelementptr inbounds i8, ptr %vtable18, i64 24
  %9 = load ptr, ptr %vfn19, align 8
  %call20 = call noundef zeroext i1 %9(ptr noundef nonnull align 8 dereferenceable(12) %other, ptr noundef nonnull %rhs13)
  br i1 %call20, label %land.rhs21, label %return

land.rhs21:                                       ; preds = %land.lhs.true17
  %10 = load i32, ptr %lhs12, align 4
  %11 = load i32, ptr %rhs13, align 4
  %cmp22 = icmp eq i32 %10, %11
  br label %return

sw.bb24:                                          ; preds = %if.end
  %vtable27 = load ptr, ptr %this, align 8
  %vfn28 = getelementptr inbounds i8, ptr %vtable27, i64 32
  %12 = load ptr, ptr %vfn28, align 8
  %call29 = call noundef zeroext i1 %12(ptr noundef nonnull align 8 dereferenceable(24) %this, ptr noundef nonnull %lhs25)
  br i1 %call29, label %land.lhs.true30, label %return

land.lhs.true30:                                  ; preds = %sw.bb24
  %vtable31 = load ptr, ptr %other, align 8
  %vfn32 = getelementptr inbounds i8, ptr %vtable31, i64 32
  %13 = load ptr, ptr %vfn32, align 8
  %call33 = call noundef zeroext i1 %13(ptr noundef nonnull align 8 dereferenceable(12) %other, ptr noundef nonnull %rhs26)
  br i1 %call33, label %land.rhs34, label %return

land.rhs34:                                       ; preds = %land.lhs.true30
  %14 = load double, ptr %lhs25, align 8
  %15 = load double, ptr %rhs26, align 8
  %cmp35 = fcmp oeq double %14, %15
  br label %return

return:                                           ; preds = %if.end, %sw.bb24, %land.lhs.true30, %land.rhs34, %sw.bb11, %land.lhs.true17, %land.rhs21, %sw.bb, %land.lhs.true, %land.rhs, %entry
  %retval.0 = phi i1 [ false, %entry ], [ false, %land.lhs.true ], [ false, %sw.bb ], [ %cmp10, %land.rhs ], [ false, %land.lhs.true17 ], [ false, %sw.bb11 ], [ %cmp22, %land.rhs21 ], [ false, %land.lhs.true30 ], [ false, %sw.bb24 ], [ %cmp35, %land.rhs34 ], [ false, %if.end ]
  ret i1 %retval.0
}